target datalayout = "e-m:e-p270:32:32-p271:32:32-p272:64:64-i64:64-i128:128-f80:128-n8:16:32:64-S128"
target triple = "x86_64-unknown-linux-gnu"

%"class.pugi::xml_attribute" = type { ptr }
%"struct.pugi::xml_attribute_struct" = type { i64, ptr, ptr, ptr, ptr }

@.str.108 = private unnamed_addr constant [5 x i8] c"%.*g\00", align 1

; Function Attrs: mustprogress uwtable
define internal noundef zeroext i1 @_ZN4pugi4impl12_GLOBAL__N_115set_value_asciiIPcmEEbRT_RT0_mS3_(ptr noundef nonnull align 8 dereferenceable(8) %dest, ptr noundef nonnull align 8 dereferenceable(8) %header, i64 noundef %header_mask, ptr noundef %buf) #2 {
entry:
  %dest.addr = alloca ptr, align 8
  %header.addr = alloca ptr, align 8
  %header_mask.addr = alloca i64, align 8
  %buf.addr = alloca ptr, align 8
  store ptr %dest, ptr %dest.addr, align 8
  store ptr %header, ptr %header.addr, align 8
  store i64 %header_mask, ptr %header_mask.addr, align 8
  store ptr %buf, ptr %buf.addr, align 8
  %0 = load ptr, ptr %dest.addr, align 8
  %1 = load ptr, ptr %header.addr, align 8
  %2 = load i64, ptr %header_mask.addr, align 8
  %3 = load ptr, ptr %buf.addr, align 8
  %4 = load ptr, ptr %buf.addr, align 8
  %call = call i64 @strlen(ptr noundef %4) #15
  %call1 = call noundef zeroext i1 @_ZN4pugi4impl12_GLOBAL__N_113strcpy_insituIPcmEEbRT_RT0_mPKcm(ptr noundef nonnull align 8 dereferenceable(8) %0, ptr noundef nonnull align 8 dereferenceable(8) %1, i64 noundef %2, ptr noundef %3, i64 noundef %call)
  ret i1 %call1
}

; Function Attrs: mustprogress uwtable
define internal noundef zeroext i1 @_ZN4pugi4impl12_GLOBAL__N_117set_value_convertIPcmEEbRT_RT0_mfi(ptr noundef nonnull align 8 dereferenceable(8) %dest, ptr noundef nonnull align 8 dereferenceable(8) %header, i64 noundef %header_mask, float noundef %value, i32 noundef %precision) #2 {
entry:
  %dest.addr = alloca ptr, align 8
  %header.addr = alloca ptr, align 8
  %header_mask.addr = alloca i64, align 8
  %value.addr = alloca float, align 4
  %precision.addr = alloca i32, align 4
  %buf = alloca [128 x i8], align 16
  store ptr %dest, ptr %dest.addr, align 8
  store ptr %header, ptr %header.addr, align 8
  store i64 %header_mask, ptr %header_mask.addr, align 8
  store float %value, ptr %value.addr, align 4
  store i32 %precision, ptr %precision.addr, align 4
  %arraydecay = getelementptr inbounds [128 x i8], ptr %buf, i64 0, i64 0
  %0 = load i32, ptr %precision.addr, align 4
  %1 = load float, ptr %value.addr, align 4
  %conv = fpext float %1 to double
  %call = call i32 (ptr, i64, ptr, ...) @snprintf(ptr noundef %arraydecay, i64 noundef 128, ptr noundef @.str.108, i32 noundef %0, double noundef %conv) #9
  %2 = load ptr, ptr %dest.addr, align 8
  %3 = load ptr, ptr %header.addr, align 8
  %4 = load i64, ptr %header_mask.addr, align 8
  %arraydecay1 = getelementptr inbounds [128 x i8], ptr %buf, i64 0, i64 0
  %call2 = call noundef zeroext i1 @_ZN4pugi4impl12_GLOBAL__N_115set_value_asciiIPcmEEbRT_RT0_mS3_(ptr noundef nonnull align 8 dereferenceable(8) %2, ptr noundef nonnull align 8 dereferenceable(8) %3, i64 noundef %4, ptr noundef %arraydecay1)
  ret i1 %call2
}

; Function Attrs: mustprogress uwtable
define noundef zeroext i1 @_ZN4pugi13xml_attribute9set_valueEfi(ptr noundef nonnull align 8 dereferenceable(8) %this, float noundef %rhs, i32 noundef %precision) #2 align 2 {
entry:
  %retval = alloca i1, align 1
  %this.addr = alloca ptr, align 8
  %rhs.addr = alloca float, align 4
  %precision.addr = alloca i32, align 4
  store ptr %this, ptr %this.addr, align 8
  store float %rhs, ptr %rhs.addr, align 4
  store i32 %precision, ptr %precision.addr, align 4
  %this1 = load ptr, ptr %this.addr, align 8
  %_attr = getelementptr inbounds %"class.pugi::xml_attribute", ptr %this1, i32 0, i32 0
  %0 = load ptr, ptr %_attr, align 8
  %tobool = icmp ne ptr %0, null
  br i1 %tobool, label %if.end, label %if.then

if.then:                                          ; preds = %entry
  store i1 false, ptr %retval, align 1
  br label %return

if.end:                                           ; preds = %entry
  %_attr2 = getelementptr inbounds %"class.pugi::xml_attribute", ptr %this1, i32 0, i32 0
  %1 = load ptr, ptr %_attr2, align 8
  %value = getelementptr inbounds %"struct.pugi::xml_attribute_struct", ptr %1, i32 0, i32 2
  %_attr3 = getelementptr inbounds %"class.pugi::xml_attribute", ptr %this1, i32 0, i32 0
  %2 = load ptr, ptr %_attr3, align 8
  %header = getelementptr inbounds %"struct.pugi::xml_attribute_struct", ptr %2, i32 0, i32 0
  %3 = load float, ptr %rhs.addr, align 4
  %4 = load i32, ptr %precision.addr, align 4
  %call = call noundef zeroext i1 @_ZN4pugi4impl12_GLOBAL__N_117set_value_convertIPcmEEbRT_RT0_mfi(ptr noundef nonnull align 8 dereferenceable(8) %value, ptr noundef nonnull align 8 dereferenceable(8) %header, i64 noundef 16, float noundef %3, i32 noundef %4)
  store i1 %call, ptr %retval, align 1
  br label %return

return:                                           ; preds = %if.end, %if.then
  %5 = load i1, ptr %retval, align 1
  ret i1 %5
}