; Function Attrs: mustprogress uwtable
define noundef zeroext i1 @_ZN4pugi13xml_attribute9set_valueEfi(ptr nocapture noundef nonnull readonly align 8 dereferenceable(8) %this, float noundef %rhs, i32 noundef %precision) local_unnamed_addr #6 align 2 {
entry:
  %buf.i = alloca [128 x i8], align 16
  %0 = load ptr, ptr %this, align 8
  %tobool.not = icmp eq ptr %0, null
  br i1 %tobool.not, label %return, label %if.end

if.end:                                           ; preds = %entry
  %value = getelementptr inbounds i8, ptr %0, i64 16
  call void @llvm.lifetime.start.p0(i64 128, ptr nonnull %buf.i)
  %conv.i = fpext float %rhs to double
  %call.i = call i32 (ptr, i64, ptr, ...) @snprintf(ptr noundef nonnull dereferenceable(1) %buf.i, i64 noundef 128, ptr noundef nonnull @.str.108, i32 noundef %precision, double noundef %conv.i) #42
  %call.i.i = call i64 @strlen(ptr noundef nonnull dereferenceable(1) %buf.i) #43
  %call1.i.i = call fastcc noundef zeroext i1 @_ZN4pugi4impl12_GLOBAL__N_113strcpy_insituIPcmEEbRT_RT0_mPKcm(ptr noundef nonnull align 8 dereferenceable(8) %value, ptr noundef nonnull align 8 dereferenceable(8) %0, i64 noundef 16, ptr noundef nonnull %buf.i, i64 noundef %call.i.i)
  call void @llvm.lifetime.end.p0(i64 128, ptr nonnull %buf.i)
  br label %return

return:                                           ; preds = %entry, %if.end
  %retval.0 = phi i1 [ %call1.i.i, %if.end ], [ false, %entry ]
  ret i1 %retval.0
}